target datalayout = "e-m:e-p270:32:32-p271:32:32-p272:64:64-i64:64-i128:128-f80:128-n8:16:32:64-S128"
target triple = "x86_64-pc-linux-gnu"

; Function Attrs: inlinehint mustprogress nounwind uwtable
define internal noundef signext i8 @_ZL8hexDigith(i8 noundef zeroext %0) #9 {
  %2 = alloca i8, align 1
  store i8 %0, ptr %2, align 1, !tbaa !15
  %3 = load i8, ptr %2, align 1, !tbaa !15
  %4 = zext i8 %3 to i32
  %5 = icmp sle i32 %4, 9
  br i1 %5, label %6, label %11

6:                                                ; preds = %1
  %7 = load i8, ptr %2, align 1, !tbaa !15
  %8 = zext i8 %7 to i32
  %9 = add nsw i32 48, %8
  %10 = trunc i32 %9 to i8
  br label %16

11:                                               ; preds = %1
  %12 = load i8, ptr %2, align 1, !tbaa !15
  %13 = zext i8 %12 to i32
  %14 = add nsw i32 87, %13
  %15 = trunc i32 %14 to i8
  br label %16

16:                                               ; preds = %11, %6
  %17 = phi i8 [ %10, %6 ], [ %15, %11 ]
  ret i8 %17
}

; Function Attrs: inlinehint mustprogress uwtable
define internal noundef ptr @_ZL10printBytesPcmPKhi(ptr noundef %0, i64 noundef %1, ptr noundef %2, i32 noundef %3) #8 {
  %5 = alloca ptr, align 8
  %6 = alloca i64, align 8
  %7 = alloca ptr, align 8
  %8 = alloca i32, align 4
  %9 = alloca ptr, align 8
  store ptr %0, ptr %5, align 8, !tbaa !26
  store i64 %1, ptr %6, align 8, !tbaa !100
  store ptr %2, ptr %7, align 8, !tbaa !26
  store i32 %3, ptr %8, align 4, !tbaa !27
  call void @llvm.lifetime.start.p0(i64 8, ptr %9) #10
  %10 = load ptr, ptr %5, align 8, !tbaa !26
  store ptr %10, ptr %9, align 8, !tbaa !26
  br label %11

11:                                               ; preds = %25, %4
  %12 = load i32, ptr %8, align 4, !tbaa !27
  %13 = icmp sgt i32 %12, 0
  br i1 %13, label %14, label %23

14:                                               ; preds = %11
  %15 = load ptr, ptr %9, align 8, !tbaa !26
  %16 = load ptr, ptr %5, align 8, !tbaa !26
  %17 = ptrtoint ptr %15 to i64
  %18 = ptrtoint ptr %16 to i64
  %19 = sub i64 %17, %18
  %20 = load i64, ptr %6, align 8, !tbaa !100
  %21 = sub i64 %20, 3
  %22 = icmp ult i64 %19, %21
  br label %23

23:                                               ; preds = %14, %11
  %24 = phi i1 [ false, %11 ], [ %22, %14 ]
  br i1 %24, label %25, label %46

25:                                               ; preds = %23
  %26 = load ptr, ptr %7, align 8, !tbaa !26
  %27 = load i8, ptr %26, align 1, !tbaa !15
  %28 = zext i8 %27 to i32
  %29 = ashr i32 %28, 4
  %30 = trunc i32 %29 to i8
  %31 = call noundef signext i8 @_ZL8hexDigith(i8 noundef zeroext %30)
  %32 = load ptr, ptr %9, align 8, !tbaa !26
  %33 = getelementptr inbounds nuw i8, ptr %32, i32 1
  store ptr %33, ptr %9, align 8, !tbaa !26
  store i8 %31, ptr %32, align 1, !tbaa !15
  %34 = load ptr, ptr %7, align 8, !tbaa !26
  %35 = load i8, ptr %34, align 1, !tbaa !15
  %36 = zext i8 %35 to i32
  %37 = and i32 %36, 15
  %38 = trunc i32 %37 to i8
  %39 = call noundef signext i8 @_ZL8hexDigith(i8 noundef zeroext %38)
  %40 = load ptr, ptr %9, align 8, !tbaa !26
  %41 = getelementptr inbounds nuw i8, ptr %40, i32 1
  store ptr %41, ptr %9, align 8, !tbaa !26
  store i8 %39, ptr %40, align 1, !tbaa !15
  %42 = load ptr, ptr %7, align 8, !tbaa !26
  %43 = getelementptr inbounds nuw i8, ptr %42, i32 1
  store ptr %43, ptr %7, align 8, !tbaa !26
  %44 = load i32, ptr %8, align 4, !tbaa !27
  %45 = add nsw i32 %44, -1
  store i32 %45, ptr %8, align 4, !tbaa !27
  br label %11, !llvm.loop !102

46:                                               ; preds = %23
  %47 = load ptr, ptr %9, align 8, !tbaa !26
  store i8 0, ptr %47, align 1, !tbaa !15
  %48 = load ptr, ptr %5, align 8, !tbaa !26
  call void @llvm.lifetime.end.p0(i64 8, ptr %9) #10
  ret ptr %48
}