; Function Attrs: inlinehint mustprogress nofree norecurse nosync nounwind memory(argmem: readwrite) uwtable
define internal fastcc noundef nonnull ptr @_ZL10printBytesPcmPKhi(ptr noundef nonnull returned %0, ptr noundef readonly captures(none) %1, i32 noundef range(i32 -128, 128) %2) unnamed_addr #10 {
  %4 = ptrtoint ptr %0 to i64
  %5 = icmp sgt i32 %2, 0
  br i1 %5, label %.lr.ph, label %.critedge

.lr.ph:                                           ; preds = %3, %.lr.ph
  %.020 = phi ptr [ %17, %.lr.ph ], [ %0, %3 ]
  %.01219 = phi i32 [ %19, %.lr.ph ], [ %2, %3 ]
  %.01318 = phi ptr [ %18, %.lr.ph ], [ %1, %3 ]
  %6 = load i8, ptr %.01318, align 1, !tbaa !15
  %7 = lshr i8 %6, 4
  %8 = icmp ult i8 %6, -96
  %9 = or disjoint i8 %7, 48
  %narrow.i = add nuw nsw i8 %7, 87
  %10 = select i1 %8, i8 %9, i8 %narrow.i
  %11 = getelementptr inbounds nuw i8, ptr %.020, i64 1
  store i8 %10, ptr %.020, align 1, !tbaa !15
  %12 = load i8, ptr %.01318, align 1, !tbaa !15
  %13 = and i8 %12, 15
  %14 = icmp samesign ult i8 %13, 10
  %15 = or disjoint i8 %13, 48
  %narrow.i17 = add nuw nsw i8 %13, 87
  %16 = select i1 %14, i8 %15, i8 %narrow.i17
  %17 = getelementptr inbounds nuw i8, ptr %.020, i64 2
  store i8 %16, ptr %11, align 1, !tbaa !15
  %18 = getelementptr inbounds nuw i8, ptr %.01318, i64 1
  %19 = add nsw i32 %.01219, -1
  %20 = icmp samesign ugt i32 %.01219, 1
  %21 = ptrtoint ptr %17 to i64
  %22 = sub i64 %21, %4
  %23 = icmp ult i64 %22, 7
  %or.cond = select i1 %20, i1 %23, i1 false
  br i1 %or.cond, label %.lr.ph, label %.critedge, !llvm.loop !95

.critedge:                                        ; preds = %.lr.ph, %3
  %.0.lcssa = phi ptr [ %0, %3 ], [ %17, %.lr.ph ]
  store i8 0, ptr %.0.lcssa, align 1, !tbaa !15
  ret ptr %0
}